target datalayout = "e-m:e-p270:32:32-p271:32:32-p272:64:64-i64:64-i128:128-f80:128-n8:16:32:64-S128"
target triple = "x86_64-pc-linux-gnu"

%struct.tjscalingfactor = type { i32, i32 }
%struct.tjregion = type { i32, i32, i32, i32 }
%struct._tjinstance = type { %struct.jpeg_compress_struct, %struct.jpeg_decompress_struct, %struct.my_error_mgr, i32, [200 x i8], i32, i32, i32, i32, i32, i32, i32, i32, i32, i32, i32, i32, i32, i32, i32, i32, i32, i32, i32, i32, i32, i32, i32, %struct.tjscalingfactor, %struct.tjregion, i32, i32 }
%struct.jpeg_compress_struct = type { ptr, ptr, ptr, ptr, i32, i32, ptr, i32, i32, i32, i32, double, i32, i32, i32, ptr, [4 x ptr], [4 x ptr], [4 x ptr], [16 x i8], [16 x i8], [16 x i8], i32, ptr, i32, i32, i32, i32, i32, i32, i32, i32, i32, i8, i8, i8, i16, i16, i32, i32, i32, i32, i32, i32, i32, [4 x ptr], i32, i32, i32, [10 x i32], i32, i32, i32, i32, ptr, ptr, ptr, ptr, ptr, ptr, ptr, ptr, ptr, ptr, i32 }
%struct.jpeg_decompress_struct = type { ptr, ptr, ptr, ptr, i32, i32, ptr, i32, i32, i32, i32, i32, i32, i32, double, i32, i32, i32, i32, i32, i32, i32, i32, i32, i32, i32, i32, i32, i32, i32, i32, i32, i32, ptr, i32, i32, i32, i32, i32, ptr, [4 x ptr], [4 x ptr], [4 x ptr], i32, ptr, i32, i32, [16 x i8], [16 x i8], [16 x i8], i32, i32, i8, i8, i8, i16, i16, i32, i8, i32, ptr, i32, i32, i32, i32, ptr, i32, [4 x ptr], i32, i32, i32, [10 x i32], i32, i32, i32, i32, i32, ptr, ptr, ptr, ptr, ptr, ptr, ptr, ptr, ptr, ptr, ptr }
%struct.my_error_mgr = type { %struct.jpeg_error_mgr, [1 x %struct.__jmp_buf_tag], ptr, i32, i32 }
%struct.jpeg_error_mgr = type { ptr, ptr, ptr, ptr, ptr, i32, %union.anon, i32, i64, ptr, i32, ptr, i32, i32 }
%union.anon = type { [8 x i32], [48 x i8] }
%struct.__jmp_buf_tag = type { [8 x i64], i32, %struct.__sigset_t }
%struct.__sigset_t = type { [16 x i64] }

@.str = private unnamed_addr constant [9 x i8] c"%s(): %s\00", align 1
@.str.1 = private unnamed_addr constant [17 x i8] c"Invalid argument\00", align 1
@.str.4 = private unnamed_addr constant [21 x i8] c"%s(): Invalid handle\00", align 1
@tjDecompressHeader3.FUNCTION_NAME = internal constant [20 x i8] c"tjDecompressHeader3\00", align 16
@.str.60 = private unnamed_addr constant [52 x i8] c"Could not determine subsampling level of JPEG image\00", align 1

; Function Attrs: nounwind uwtable
define i32 @tj3Get(ptr noundef %0, i32 noundef %1) #0 {
  %3 = alloca i32, align 4
  %4 = alloca ptr, align 8
  %5 = alloca i32, align 4
  %6 = alloca ptr, align 8
  store ptr %0, ptr %4, align 8
  store i32 %1, ptr %5, align 4
  %7 = load ptr, ptr %4, align 8
  store ptr %7, ptr %6, align 8
  %8 = load ptr, ptr %6, align 8
  %9 = icmp ne ptr %8, null
  br i1 %9, label %11, label %10

10:                                               ; preds = %2
  store i32 -1, ptr %3, align 4
  br label %115

11:                                               ; preds = %2
  %12 = load i32, ptr %5, align 4
  switch i32 %12, label %114 [
    i32 0, label %13
    i32 1, label %18
    i32 2, label %22
    i32 3, label %26
    i32 4, label %30
    i32 5, label %34
    i32 6, label %38
    i32 7, label %42
    i32 8, label %46
    i32 9, label %50
    i32 10, label %54
    i32 11, label %58
    i32 12, label %62
    i32 13, label %66
    i32 14, label %70
    i32 15, label %74
    i32 16, label %78
    i32 17, label %82
    i32 18, label %86
    i32 19, label %90
    i32 20, label %94
    i32 21, label %98
    i32 22, label %102
    i32 23, label %106
    i32 24, label %110
  ]

13:                                               ; preds = %11
  %14 = load ptr, ptr %6, align 8
  %15 = getelementptr inbounds %struct._tjinstance, ptr %14, i32 0, i32 2
  %16 = getelementptr inbounds %struct.my_error_mgr, ptr %15, i32 0, i32 4
  %17 = load i32, ptr %16, align 4
  store i32 %17, ptr %3, align 4
  br label %115

18:                                               ; preds = %11
  %19 = load ptr, ptr %6, align 8
  %20 = getelementptr inbounds %struct._tjinstance, ptr %19, i32 0, i32 6
  %21 = load i32, ptr %20, align 8
  store i32 %21, ptr %3, align 4
  br label %115

22:                                               ; preds = %11
  %23 = load ptr, ptr %6, align 8
  %24 = getelementptr inbounds %struct._tjinstance, ptr %23, i32 0, i32 7
  %25 = load i32, ptr %24, align 4
  store i32 %25, ptr %3, align 4
  br label %115

26:                                               ; preds = %11
  %27 = load ptr, ptr %6, align 8
  %28 = getelementptr inbounds %struct._tjinstance, ptr %27, i32 0, i32 8
  %29 = load i32, ptr %28, align 8
  store i32 %29, ptr %3, align 4
  br label %115

30:                                               ; preds = %11
  %31 = load ptr, ptr %6, align 8
  %32 = getelementptr inbounds %struct._tjinstance, ptr %31, i32 0, i32 9
  %33 = load i32, ptr %32, align 4
  store i32 %33, ptr %3, align 4
  br label %115

34:                                               ; preds = %11
  %35 = load ptr, ptr %6, align 8
  %36 = getelementptr inbounds %struct._tjinstance, ptr %35, i32 0, i32 10
  %37 = load i32, ptr %36, align 8
  store i32 %37, ptr %3, align 4
  br label %115

38:                                               ; preds = %11
  %39 = load ptr, ptr %6, align 8
  %40 = getelementptr inbounds %struct._tjinstance, ptr %39, i32 0, i32 11
  %41 = load i32, ptr %40, align 4
  store i32 %41, ptr %3, align 4
  br label %115

42:                                               ; preds = %11
  %43 = load ptr, ptr %6, align 8
  %44 = getelementptr inbounds %struct._tjinstance, ptr %43, i32 0, i32 12
  %45 = load i32, ptr %44, align 8
  store i32 %45, ptr %3, align 4
  br label %115

46:                                               ; preds = %11
  %47 = load ptr, ptr %6, align 8
  %48 = getelementptr inbounds %struct._tjinstance, ptr %47, i32 0, i32 13
  %49 = load i32, ptr %48, align 4
  store i32 %49, ptr %3, align 4
  br label %115

50:                                               ; preds = %11
  %51 = load ptr, ptr %6, align 8
  %52 = getelementptr inbounds %struct._tjinstance, ptr %51, i32 0, i32 14
  %53 = load i32, ptr %52, align 8
  store i32 %53, ptr %3, align 4
  br label %115

54:                                               ; preds = %11
  %55 = load ptr, ptr %6, align 8
  %56 = getelementptr inbounds %struct._tjinstance, ptr %55, i32 0, i32 15
  %57 = load i32, ptr %56, align 4
  store i32 %57, ptr %3, align 4
  br label %115

58:                                               ; preds = %11
  %59 = load ptr, ptr %6, align 8
  %60 = getelementptr inbounds %struct._tjinstance, ptr %59, i32 0, i32 16
  %61 = load i32, ptr %60, align 8
  store i32 %61, ptr %3, align 4
  br label %115

62:                                               ; preds = %11
  %63 = load ptr, ptr %6, align 8
  %64 = getelementptr inbounds %struct._tjinstance, ptr %63, i32 0, i32 17
  %65 = load i32, ptr %64, align 4
  store i32 %65, ptr %3, align 4
  br label %115

66:                                               ; preds = %11
  %67 = load ptr, ptr %6, align 8
  %68 = getelementptr inbounds %struct._tjinstance, ptr %67, i32 0, i32 18
  %69 = load i32, ptr %68, align 8
  store i32 %69, ptr %3, align 4
  br label %115

70:                                               ; preds = %11
  %71 = load ptr, ptr %6, align 8
  %72 = getelementptr inbounds %struct._tjinstance, ptr %71, i32 0, i32 19
  %73 = load i32, ptr %72, align 4
  store i32 %73, ptr %3, align 4
  br label %115

74:                                               ; preds = %11
  %75 = load ptr, ptr %6, align 8
  %76 = getelementptr inbounds %struct._tjinstance, ptr %75, i32 0, i32 20
  %77 = load i32, ptr %76, align 8
  store i32 %77, ptr %3, align 4
  br label %115

78:                                               ; preds = %11
  %79 = load ptr, ptr %6, align 8
  %80 = getelementptr inbounds %struct._tjinstance, ptr %79, i32 0, i32 21
  %81 = load i32, ptr %80, align 4
  store i32 %81, ptr %3, align 4
  br label %115

82:                                               ; preds = %11
  %83 = load ptr, ptr %6, align 8
  %84 = getelementptr inbounds %struct._tjinstance, ptr %83, i32 0, i32 22
  %85 = load i32, ptr %84, align 8
  store i32 %85, ptr %3, align 4
  br label %115

86:                                               ; preds = %11
  %87 = load ptr, ptr %6, align 8
  %88 = getelementptr inbounds %struct._tjinstance, ptr %87, i32 0, i32 23
  %89 = load i32, ptr %88, align 4
  store i32 %89, ptr %3, align 4
  br label %115

90:                                               ; preds = %11
  %91 = load ptr, ptr %6, align 8
  %92 = getelementptr inbounds %struct._tjinstance, ptr %91, i32 0, i32 24
  %93 = load i32, ptr %92, align 8
  store i32 %93, ptr %3, align 4
  br label %115

94:                                               ; preds = %11
  %95 = load ptr, ptr %6, align 8
  %96 = getelementptr inbounds %struct._tjinstance, ptr %95, i32 0, i32 25
  %97 = load i32, ptr %96, align 4
  store i32 %97, ptr %3, align 4
  br label %115

98:                                               ; preds = %11
  %99 = load ptr, ptr %6, align 8
  %100 = getelementptr inbounds %struct._tjinstance, ptr %99, i32 0, i32 26
  %101 = load i32, ptr %100, align 8
  store i32 %101, ptr %3, align 4
  br label %115

102:                                              ; preds = %11
  %103 = load ptr, ptr %6, align 8
  %104 = getelementptr inbounds %struct._tjinstance, ptr %103, i32 0, i32 27
  %105 = load i32, ptr %104, align 4
  store i32 %105, ptr %3, align 4
  br label %115

106:                                              ; preds = %11
  %107 = load ptr, ptr %6, align 8
  %108 = getelementptr inbounds %struct._tjinstance, ptr %107, i32 0, i32 30
  %109 = load i32, ptr %108, align 8
  store i32 %109, ptr %3, align 4
  br label %115

110:                                              ; preds = %11
  %111 = load ptr, ptr %6, align 8
  %112 = getelementptr inbounds %struct._tjinstance, ptr %111, i32 0, i32 31
  %113 = load i32, ptr %112, align 4
  store i32 %113, ptr %3, align 4
  br label %115

114:                                              ; preds = %11
  store i32 -1, ptr %3, align 4
  br label %115

115:                                              ; preds = %114, %110, %106, %102, %98, %94, %90, %86, %82, %78, %74, %70, %66, %62, %58, %54, %50, %46, %42, %38, %34, %30, %26, %22, %18, %13, %10
  %116 = load i32, ptr %3, align 4
  ret i32 %116
}

; Function Attrs: nounwind uwtable
define i32 @tjDecompressHeader3(ptr noundef %0, ptr noundef %1, i64 noundef %2, ptr noundef %3, ptr noundef %4, ptr noundef %5, ptr noundef %6) #0 {
  %8 = alloca i32, align 4
  %9 = alloca ptr, align 8
  %10 = alloca ptr, align 8
  %11 = alloca i64, align 8
  %12 = alloca ptr, align 8
  %13 = alloca ptr, align 8
  %14 = alloca ptr, align 8
  %15 = alloca ptr, align 8
  %16 = alloca i32, align 4
  %17 = alloca ptr, align 8
  store ptr %0, ptr %9, align 8
  store ptr %1, ptr %10, align 8
  store i64 %2, ptr %11, align 8
  store ptr %3, ptr %12, align 8
  store ptr %4, ptr %13, align 8
  store ptr %5, ptr %14, align 8
  store ptr %6, ptr %15, align 8
  store i32 0, ptr %16, align 4
  %18 = load ptr, ptr %9, align 8
  store ptr %18, ptr %17, align 8
  %19 = load ptr, ptr %17, align 8
  %20 = icmp ne ptr %19, null
  br i1 %20, label %25, label %21

21:                                               ; preds = %7
  %22 = call align 16 ptr @llvm.threadlocal.address.p0(ptr align 16 @errStr)
  %23 = getelementptr inbounds [200 x i8], ptr %22, i64 0, i64 0
  %24 = call i32 (ptr, i64, ptr, ...) @snprintf(ptr noundef %23, i64 noundef 200, ptr noundef @.str.4, ptr noundef @tjDecompressHeader3.FUNCTION_NAME) #11
  store i32 -1, ptr %8, align 4
  br label %85

25:                                               ; preds = %7
  %26 = load ptr, ptr %17, align 8
  %27 = getelementptr inbounds %struct._tjinstance, ptr %26, i32 0, i32 2
  %28 = getelementptr inbounds %struct.my_error_mgr, ptr %27, i32 0, i32 3
  store i32 0, ptr %28, align 8
  %29 = load ptr, ptr %17, align 8
  %30 = getelementptr inbounds %struct._tjinstance, ptr %29, i32 0, i32 5
  store i32 0, ptr %30, align 4
  %31 = load ptr, ptr %12, align 8
  %32 = icmp eq ptr %31, null
  br i1 %32, label %42, label %33

33:                                               ; preds = %25
  %34 = load ptr, ptr %13, align 8
  %35 = icmp eq ptr %34, null
  br i1 %35, label %42, label %36

36:                                               ; preds = %33
  %37 = load ptr, ptr %14, align 8
  %38 = icmp eq ptr %37, null
  br i1 %38, label %42, label %39

39:                                               ; preds = %36
  %40 = load ptr, ptr %15, align 8
  %41 = icmp eq ptr %40, null
  br i1 %41, label %42, label %52

42:                                               ; preds = %39, %36, %33, %25
  %43 = load ptr, ptr %17, align 8
  %44 = getelementptr inbounds %struct._tjinstance, ptr %43, i32 0, i32 4
  %45 = getelementptr inbounds [200 x i8], ptr %44, i64 0, i64 0
  %46 = call i32 (ptr, i64, ptr, ...) @snprintf(ptr noundef %45, i64 noundef 200, ptr noundef @.str, ptr noundef @tjDecompressHeader3.FUNCTION_NAME, ptr noundef @.str.1) #11
  %47 = load ptr, ptr %17, align 8
  %48 = getelementptr inbounds %struct._tjinstance, ptr %47, i32 0, i32 5
  store i32 1, ptr %48, align 4
  %49 = call align 16 ptr @llvm.threadlocal.address.p0(ptr align 16 @errStr)
  %50 = getelementptr inbounds [200 x i8], ptr %49, i64 0, i64 0
  %51 = call i32 (ptr, i64, ptr, ...) @snprintf(ptr noundef %50, i64 noundef 200, ptr noundef @.str, ptr noundef @tjDecompressHeader3.FUNCTION_NAME, ptr noundef @.str.1) #11
  store i32 -1, ptr %16, align 4
  br label %83

52:                                               ; preds = %39
  %53 = load ptr, ptr %9, align 8
  %54 = load ptr, ptr %10, align 8
  %55 = load i64, ptr %11, align 8
  %56 = call i32 @tj3DecompressHeader(ptr noundef %53, ptr noundef %54, i64 noundef %55)
  store i32 %56, ptr %16, align 4
  %57 = load ptr, ptr %9, align 8
  %58 = call i32 @tj3Get(ptr noundef %57, i32 noundef 5)
  %59 = load ptr, ptr %12, align 8
  store i32 %58, ptr %59, align 4
  %60 = load ptr, ptr %9, align 8
  %61 = call i32 @tj3Get(ptr noundef %60, i32 noundef 6)
  %62 = load ptr, ptr %13, align 8
  store i32 %61, ptr %62, align 4
  %63 = load ptr, ptr %9, align 8
  %64 = call i32 @tj3Get(ptr noundef %63, i32 noundef 4)
  %65 = load ptr, ptr %14, align 8
  store i32 %64, ptr %65, align 4
  %66 = load ptr, ptr %14, align 8
  %67 = load i32, ptr %66, align 4
  %68 = icmp eq i32 %67, -1
  br i1 %68, label %69, label %79

69:                                               ; preds = %52
  %70 = load ptr, ptr %17, align 8
  %71 = getelementptr inbounds %struct._tjinstance, ptr %70, i32 0, i32 4
  %72 = getelementptr inbounds [200 x i8], ptr %71, i64 0, i64 0
  %73 = call i32 (ptr, i64, ptr, ...) @snprintf(ptr noundef %72, i64 noundef 200, ptr noundef @.str, ptr noundef @tjDecompressHeader3.FUNCTION_NAME, ptr noundef @.str.60) #11
  %74 = load ptr, ptr %17, align 8
  %75 = getelementptr inbounds %struct._tjinstance, ptr %74, i32 0, i32 5
  store i32 1, ptr %75, align 4
  %76 = call align 16 ptr @llvm.threadlocal.address.p0(ptr align 16 @errStr)
  %77 = getelementptr inbounds [200 x i8], ptr %76, i64 0, i64 0
  %78 = call i32 (ptr, i64, ptr, ...) @snprintf(ptr noundef %77, i64 noundef 200, ptr noundef @.str, ptr noundef @tjDecompressHeader3.FUNCTION_NAME, ptr noundef @.str.60) #11
  store i32 -1, ptr %16, align 4
  br label %83

79:                                               ; preds = %52
  %80 = load ptr, ptr %9, align 8
  %81 = call i32 @tj3Get(ptr noundef %80, i32 noundef 8)
  %82 = load ptr, ptr %15, align 8
  store i32 %81, ptr %82, align 4
  br label %83

83:                                               ; preds = %79, %69, %42
  %84 = load i32, ptr %16, align 4
  store i32 %84, ptr %8, align 4
  br label %85

85:                                               ; preds = %83, %21
  %86 = load i32, ptr %8, align 4
  ret i32 %86
}