; Function Attrs: nounwind uwtable
define range(i32 -1, 1) i32 @tjDecompressHeader3(ptr noundef %0, ptr noundef %1, i64 noundef %2, ptr noundef writeonly %3, ptr noundef writeonly %4, ptr noundef writeonly %5, ptr noundef writeonly %6) local_unnamed_addr #0 {
  %.not = icmp eq ptr %0, null
  br i1 %.not, label %8, label %11

8:                                                ; preds = %7
  %9 = tail call align 16 ptr @llvm.threadlocal.address.p0(ptr align 16 @errStr)
  %10 = tail call i32 (ptr, i64, ptr, ...) @snprintf(ptr noundef nonnull dereferenceable(1) %9, i64 noundef 200, ptr noundef nonnull @.str.4, ptr noundef nonnull @tjDecompressHeader3.FUNCTION_NAME) #26
  br label %40

11:                                               ; preds = %7
  %12 = getelementptr inbounds i8, ptr %0, i64 1528
  store i32 0, ptr %12, align 8
  %13 = getelementptr inbounds i8, ptr %0, i64 1740
  store i32 0, ptr %13, align 4
  %14 = insertelement <4 x ptr> poison, ptr %3, i64 0
  %15 = insertelement <4 x ptr> %14, ptr %4, i64 1
  %16 = insertelement <4 x ptr> %15, ptr %5, i64 2
  %17 = insertelement <4 x ptr> %16, ptr %6, i64 3
  %18 = icmp eq <4 x ptr> %17, zeroinitializer
  %19 = bitcast <4 x i1> %18 to i4
  %.not45 = icmp eq i4 %19, 0
  br i1 %.not45, label %tj3Get.exit41, label %20

20:                                               ; preds = %11
  %21 = getelementptr inbounds i8, ptr %0, i64 1540
  %22 = tail call i32 (ptr, i64, ptr, ...) @snprintf(ptr noundef nonnull dereferenceable(1) %21, i64 noundef 200, ptr noundef nonnull @.str, ptr noundef nonnull @tjDecompressHeader3.FUNCTION_NAME, ptr noundef nonnull @.str.1) #26
  store i32 1, ptr %13, align 4
  %23 = tail call align 16 ptr @llvm.threadlocal.address.p0(ptr align 16 @errStr)
  %24 = tail call i32 (ptr, i64, ptr, ...) @snprintf(ptr noundef nonnull dereferenceable(1) %23, i64 noundef 200, ptr noundef nonnull @.str, ptr noundef nonnull @tjDecompressHeader3.FUNCTION_NAME, ptr noundef nonnull @.str.1) #26
  br label %40

tj3Get.exit41:                                    ; preds = %11
  %25 = tail call i32 @tj3DecompressHeader(ptr noundef nonnull %0, ptr noundef %1, i64 noundef %2)
  %26 = getelementptr inbounds i8, ptr %0, i64 1760
  %27 = load i32, ptr %26, align 8
  store i32 %27, ptr %3, align 4
  %28 = getelementptr inbounds i8, ptr %0, i64 1764
  %29 = load i32, ptr %28, align 4
  store i32 %29, ptr %4, align 4
  %30 = getelementptr inbounds i8, ptr %0, i64 1756
  %31 = load i32, ptr %30, align 4
  store i32 %31, ptr %5, align 4
  %32 = icmp eq i32 %31, -1
  br i1 %32, label %33, label %tj3Get.exit44

33:                                               ; preds = %tj3Get.exit41
  %34 = getelementptr inbounds i8, ptr %0, i64 1540
  %35 = tail call i32 (ptr, i64, ptr, ...) @snprintf(ptr noundef nonnull dereferenceable(1) %34, i64 noundef 200, ptr noundef nonnull @.str, ptr noundef nonnull @tjDecompressHeader3.FUNCTION_NAME, ptr noundef nonnull @.str.60) #26
  store i32 1, ptr %13, align 4
  %36 = tail call align 16 ptr @llvm.threadlocal.address.p0(ptr align 16 @errStr)
  %37 = tail call i32 (ptr, i64, ptr, ...) @snprintf(ptr noundef nonnull dereferenceable(1) %36, i64 noundef 200, ptr noundef nonnull @.str, ptr noundef nonnull @tjDecompressHeader3.FUNCTION_NAME, ptr noundef nonnull @.str.60) #26
  br label %40

tj3Get.exit44:                                    ; preds = %tj3Get.exit41
  %38 = getelementptr inbounds i8, ptr %0, i64 1772
  %39 = load i32, ptr %38, align 4
  store i32 %39, ptr %6, align 4
  br label %40

40:                                               ; preds = %20, %33, %tj3Get.exit44, %8
  %.0 = phi i32 [ -1, %8 ], [ -1, %20 ], [ -1, %33 ], [ %25, %tj3Get.exit44 ]
  ret i32 %.0
}